; Function Attrs: nounwind uwtable
define internal range(i32 -1, 1) i32 @H5AC__proxy_entry_free_icr(ptr noundef %0) #1 {
  %2 = load i8, ptr @H5AC_init_g, align 1, !tbaa !3, !range !7, !noundef !8
  %3 = trunc nuw i8 %2 to i1
  %4 = load i8, ptr @H5_libterm_g, align 1, !range !7
  %5 = trunc nuw i8 %4 to i1
  %6 = xor i1 %5, true
  %7 = select i1 %3, i1 true, i1 %6
  br i1 %7, label %8, label %H5AC_proxy_entry_dest.exit.thread, !prof !9

8:                                                ; preds = %1
  %9 = select i1 %3, i1 true, i1 %5
  br i1 %9, label %13, label %10, !prof !9

10:                                               ; preds = %8
  store i8 1, ptr @H5AC_init_g, align 1, !tbaa !3
  %11 = tail call i32 @H5AC__init_package() #3
  %12 = icmp slt i32 %11, 0
  br i1 %12, label %17, label %._crit_edge.i

._crit_edge.i:                                    ; preds = %10
  %.pre.i = load i8, ptr @H5AC_init_g, align 1, !tbaa !3, !range !7
  %.pre2.i = load i8, ptr @H5_libterm_g, align 1, !range !7
  %.pre3.i = trunc nuw i8 %.pre.i to i1
  %.pre4.i = trunc nuw i8 %.pre2.i to i1
  %.pre = xor i1 %.pre4.i, true
  br label %13

13:                                               ; preds = %._crit_edge.i, %8
  %.pre-phi = phi i1 [ %.pre, %._crit_edge.i ], [ %6, %8 ]
  %.pre-phi.i = phi i1 [ %.pre3.i, %._crit_edge.i ], [ %3, %8 ]
  %14 = select i1 %.pre-phi.i, i1 true, i1 %.pre-phi
  br i1 %14, label %15, label %H5AC_proxy_entry_dest.exit.thread, !prof !9

15:                                               ; preds = %13
  %16 = tail call ptr @H5FL_reg_free(ptr noundef nonnull @H5_H5AC_proxy_entry_t_reg_free_list, ptr noundef %0) #3
  br label %H5AC_proxy_entry_dest.exit.thread

17:                                               ; preds = %10
  store i8 0, ptr @H5AC_init_g, align 1, !tbaa !3
  %18 = load i64, ptr @H5E_FUNC_g, align 8, !tbaa !10
  %19 = load i64, ptr @H5E_CANTINIT_g, align 8, !tbaa !10
  %20 = tail call i32 (ptr, ptr, i32, i64, i64, ptr, ...) @H5E_printf_stack(ptr noundef nonnull @.str.1, ptr noundef nonnull @__func__.H5AC_proxy_entry_dest, i32 noundef 402, i64 noundef %18, i64 noundef %19, ptr noundef nonnull @.str.2) #3
  %21 = load i64, ptr @H5E_CACHE_g, align 8, !tbaa !10
  %22 = load i64, ptr @H5E_CANTFREE_g, align 8, !tbaa !10
  %23 = tail call i32 (ptr, ptr, i32, i64, i64, ptr, ...) @H5E_printf_stack(ptr noundef nonnull @.str.1, ptr noundef nonnull @__func__.H5AC__proxy_entry_free_icr, i32 noundef 606, i64 noundef %21, i64 noundef %22, ptr noundef nonnull @.str.27) #3
  br label %H5AC_proxy_entry_dest.exit.thread

H5AC_proxy_entry_dest.exit.thread:                ; preds = %13, %15, %17, %1
  %.0 = phi i32 [ -1, %17 ], [ 0, %1 ], [ 0, %15 ], [ 0, %13 ]
  ret i32 %.0
}